; Function Attrs: nounwind uwtable
define i32 @curl_easy_upkeep(ptr noundef %0) local_unnamed_addr #5 {
  %.not = icmp eq ptr %0, null
  br i1 %.not, label %9, label %2

2:                                                ; preds = %1
  %3 = load i32, ptr %0, align 8, !tbaa !96
  %4 = icmp eq i32 %3, -1059136595
  br i1 %4, label %5, label %9

5:                                                ; preds = %2
  %6 = tail call zeroext i1 @Curl_is_in_callback(ptr noundef nonnull %0) #11
  br i1 %6, label %9, label %7

7:                                                ; preds = %5
  %8 = tail call i32 @Curl_cpool_upkeep(ptr noundef nonnull %0) #11
  br label %9

9:                                                ; preds = %5, %1, %2, %7
  %.0 = phi i32 [ %8, %7 ], [ 43, %2 ], [ 43, %1 ], [ 93, %5 ]
  ret i32 %.0
}